(lp0
(dp1
S'category'
p2
(lp3
S'None'
p4
asS'title'
p5
S'None'
p6
sS'url'
p7
S'/2015/7/14/note'
p8
sS'syndication'
p9
S'None'
p10
sS'summary'
p11
S'None'
p12
sS'content'
p13
V<p>note</p>
p14
sS'location'
p15
S'geo:53.4881557,-113.5834727'
p16
sS'published'
p17
cdatetime
date
p18
(S'\x07\xdf\x07\x0e'
p19
tp20
Rp21
sS'slug'
p22
S'note'
p23
sa(dp24
g2
(lp25
S'None'
p26
asg5
S'None'
p27
sg7
S'/2015/7/8/note'
p28
sg9
S'http://twitter.com/AlexKKearney/status/618934046920413184,'
p29
sg11
S'None'
p30
sg13
V<p>note</p>
p31
sg15
S'None'
p32
sg17
g18
(S'\x07\xdf\x07\x08'
p33
tp34
Rp35
sg22
S'note'
p36
sa(dp37
g2
(lp38
S'None'
p39
asg5
S'None'
p40
sg7
S'/2015/7/8/heres-a'
p41
sg9
S'None'
p42
sg11
S'None'
p43
sg13
V<h1>here's a new document</h1>\u000a<h2>It's all about markdown</h2>\u000a<p><em>this is the coolest thing</em></p>\u000a<p>Want to know why? You can read it like plain-text. </p>
p44
sg15
S'None'
p45
sg17
g18
(S'\x07\xdf\x07\x08'
p46
tp47
Rp48
sg22
S'heres-a'
p49
sa(dp50
g2
(lp51
S'apples'
p52
aS'oranges'
p53
aS'pears'
p54
asg5
S'None'
p55
sg7
S'/2015/7/8/i-think-th'
p56
sg9
S'None'
p57
sg11
S'None'
p58
sg13
V<p>I think this is a really neat idea. </p>
p59
sg15
S'None'
p60
sg17
g18
(S'\x07\xdf\x07\x08'
p61
tp62
Rp63
sg22
S'i-think-th'
p64
sa(dp65
g2
(lp66
S'None'
p67
asg5
S'None'
p68
sg7
S'/2015/7/8/im-testin'
p69
sg9
S'http://twitter.com/AlexKKearney/status/618933007903232001,'
p70
sg11
S'None'
p71
sg13
V<p>I'm testing out whether or not my tweeter works. </p>
p72
sg15
S'None'
p73
sg17
g18
(S'\x07\xdf\x07\x08'
p74
tp75
Rp76
sg22
S'im-testin'
p77
sa(dp78
g2
(lp79
S'None'
p80
asg5
S'None'
p81
sg7
S'/2015/7/3/note'
p82
sg9
S'None'
p83
sg11
S'None'
p84
sg13
V<p>note</p>
p85
sg15
S'None'
p86
sg17
g18
(S'\x07\xdf\x07\x03'
p87
tp88
Rp89
sg22
S'note'
p90
sa(dp91
g2
(lp92
S'None'
p93
asg5
S'None'
p94
sg7
S'/2015/7/3/note-asdfa'
p95
sg9
S'None'
p96
sg11
S'None'
p97
sg13
V<p>note asdfasfsadfd</p>
p98
sg15
S'geo:51.0860924,-115.37743239999999'
p99
sg17
g18
(S'\x07\xdf\x07\x03'
p100
tp101
Rp102
sg22
S'note-asdfa'
p103
sa(dp104
g2
(lp105
S'None'
p106
asg5
S'None'
p107
sg7
S'/2015/6/27/another-te'
p108
sS'photo'
p109
S'data/2015/6/27/another-te.jpg'
p110
sg9
S'None'
p111
sg11
S'None'
p112
sg13
V<p>Another test </p>
p113
sg15
S'None'
p114
sg17
g18
(S'\x07\xdf\x06\x1b'
p115
tp116
Rp117
sg22
S'another-te'
p118
sa(dp119
g2
(lp120
S'None'
p121
asg5
S'None'
p122
sg7
S'/2015/6/23/now-im-te'
p123
sg9
S'http://twitter.com/AlexKKearney/status/613324283125866497,'
p124
sg11
S'None'
p125
sg13
V<p>Now I'm testing out a really long tweet to make sure that it properly truncates my message and makes it appropriate for twitter</p>
p126
sg15
S'None'
p127
sg17
g18
(S'\x07\xdf\x06\x17'
p128
tp129
Rp130
sg22
S'now-im-te'
p131
sa(dp132
g2
(lp133
S'None'
p134
asg5
S'None'
p135
sg7
S'/2015/6/23/heres-an'
p136
sg9
S'http://twitter.com/AlexKKearney/status/613321254817415169,'
p137
sg11
S'None'
p138
sg13
V<p>Here's an idea!</p>
p139
sg15
S'None'
p140
sg17
g18
(S'\x07\xdf\x06\x17'
p141
tp142
Rp143
sg22
S'heres-an'
p144
sa(dp145
g2
(lp146
S'None'
p147
asg5
S'None'
p148
sg7
S'/2015/6/23/sdajfaoskpdofk'
p149
sg9
S'None'
p150
sg11
S'None'
p151
sg13
V<p>sdajfaoskpdofk</p>
p152
sg15
S'None'
p153
sg17
g18
(S'\x07\xdf\x06\x17'
p154
tp155
Rp156
sg22
S'sdajfaoskpdofk'
p157
sa(dp158
g2
(lp159
S'None'
p160
asg5
S'None'
p161
sg7
S'/2015/6/23/wow'
p162
sg109
S'data/2015/6/23/wow.jpg'
p163
sg9
S'http://twitter.com/AlexKKearney/status/613325326190538752,'
p164
sg11
S'None'
p165
sg13
V<p>Wow. An image too. Now I'm testing out a really long tweet to make sure that it properly truncates my message and makes it appropriate for twitter</p>
p166
sg15
S'None'
p167
sg17
g18
(S'\x07\xdf\x06\x17'
p168
tp169
Rp170
sg22
S'wow'
p171
sa(dp172
g2
(lp173
S'None'
p174
asg5
S'None'
p175
sg7
S'/2015/6/23/sdajfaoskpdofk-asdfsadfasdfd-asdfasdf'
p176
sg109
S'data/2015/6/23/sdajfaoskpdofk-asdfsadfasdfd-asdfasdf.jpg'
p177
sg9
S'None'
p178
sg11
S'None'
p179
sg13
V<p>sdajfaoskpdofk asdfsadfasdfd asdfasdf!</p>
p180
sg15
S'None'
p181
sg17
g18
(S'\x07\xdf\x06\x17'
p182
tp183
Rp184
sg22
S'sdajfaoskpdofk-asdfsadfasdfd-asdfasdf'
p185
sa(dp186
g2
(lp187
S'None'
p188
asg5
S'None'
p189
sg7
S'/2015/6/23/sdajfaoskpdofk-asdfsadfasdf'
p190
sg9
S'None'
p191
sg11
S'None'
p192
sg13
V<p>sdajfaoskpdofk asdfsadfasdf!</p>
p193
sg15
S'None'
p194
sg17
g18
(S'\x07\xdf\x06\x17'
p195
tp196
Rp197
sg22
S'sdajfaoskpdofk-asdfsadfasdf'
p198
sa(dp199
g2
(lp200
S''
p201
asg5
g201
sg7
S'/2015/6/23/'
p202
sg9
S'None'
p203
sg11
g201
sg13
V<p>sadfjaosdkljfosk</p>
p204
sg15
g201
sg17
g18
(S'\x07\xdf\x06\x17'
p205
tp206
Rp207
sg22
g201
sa(dp208
g2
(lp209
S'None'
p210
asg5
S'None'
p211
sg7
S'/2015/6/23/sdajfaoskpdofk-asdfsadfasdfd-asdfasdf-asdfasdf'
p212
sg109
S'data/2015/6/23/sdajfaoskpdofk-asdfsadfasdfd-asdfasdf-asdfasdf.jpg'
p213
sg9
S'None'
p214
sg11
S'None'
p215
sg13
V<p>sdajfaoskpdofk asdfsadfasdfd asdfasdf asdfasdf!</p>
p216
sg15
S'None'
p217
sg17
g18
(S'\x07\xdf\x06\x17'
p218
tp219
Rp220
sg22
S'sdajfaoskpdofk-asdfsadfasdfd-asdfasdf-asdfasdf'
p221
sa(dp222
g2
(lp223
S'None'
p224
asg5
S'None'
p225
sg7
S'/2015/6/23/coolness'
p226
sg109
S'data/2015/6/23/coolness.jpg'
p227
sg9
S'http://twitter.com/AlexKKearney/status/613325525289988096,'
p228
sg11
S'None'
p229
sg13
V<p>coolness</p>
p230
sg15
S'None'
p231
sg17
g18
(S'\x07\xdf\x06\x17'
p232
tp233
Rp234
sg22
S'coolness'
p235
sa(dp236
g2
(lp237
S'None'
p238
asg5
S'None'
p239
sg7
S'/2015/6/23/sdaifsda'
p240
sg109
S'data/2015/6/23/sdaifsda.jpg'
p241
sg9
S'None'
p242
sg11
S'None'
p243
sg13
V<p>sdaifsda</p>
p244
sg15
S'None'
p245
sg17
g18
(S'\x07\xdf\x06\x17'
p246
tp247
Rp248
sg22
S'sdaifsda'
p249
sa(dp250
g2
(lp251
S'None'
p252
asg5
S'None'
p253
sg7
S'/2015/6/23/im-just-m'
p254
sg9
S'http://twitter.com/AlexKKearney/status/613321630085947392,'
p255
sg11
S'None'
p256
sg13
V<p>I'm just making a note</p>
p257
sg15
S'None'
p258
sg17
g18
(S'\x07\xdf\x06\x17'
p259
tp260
Rp261
sg22
S'im-just-m'
p262
sa(dp263
g2
(lp264
S'None'
p265
asg5
S'None'
p266
sg7
S'/2015/6/23/just-a-not'
p267
sg9
S'http://twitter.com/AlexKKearney/status/613320836603355136,'
p268
sg11
S'None'
p269
sg13
V<p>just a note</p>
p270
sg15
S'None'
p271
sg17
g18
(S'\x07\xdf\x06\x17'
p272
tp273
Rp274
sg22
S'just-a-not'
p275
sa.