(lp0
(dp1
S'category'
p2
(lp3
S'None'
p4
asS'title'
p5
S'None'
p6
sS'url'
p7
S'/2015/7/8/note'
p8
sS'syndication'
p9
S'http://twitter.com/AlexKKearney/status/618934046920413184,'
p10
sS'summary'
p11
S'None'
p12
sS'content'
p13
V<p>note</p>
p14
sS'location'
p15
S'None'
p16
sS'published'
p17
cdatetime
date
p18
(S'\x07\xdf\x07\x08'
p19
tp20
Rp21
sS'slug'
p22
S'note'
p23
sa(dp24
g2
(lp25
S'None'
p26
asg5
S'None'
p27
sg7
S'/2015/7/8/heres-a'
p28
sg9
S'None'
p29
sg11
S'None'
p30
sg13
V<h1>here's a new document</h1>\u000a<h2>It's all about markdown</h2>\u000a<p><em>this is the coolest thing</em></p>\u000a<p>Want to know why? You can read it like plain-text. </p>
p31
sg15
S'None'
p32
sg17
g18
(S'\x07\xdf\x07\x08'
p33
tp34
Rp35
sg22
S'heres-a'
p36
sa(dp37
g2
(lp38
S'apples'
p39
aS'oranges'
p40
aS'pears'
p41
asg5
S'None'
p42
sg7
S'/2015/7/8/i-think-th'
p43
sg9
S'None'
p44
sg11
S'None'
p45
sg13
V<p>I think this is a really neat idea. </p>
p46
sg15
S'None'
p47
sg17
g18
(S'\x07\xdf\x07\x08'
p48
tp49
Rp50
sg22
S'i-think-th'
p51
sa(dp52
g2
(lp53
S'None'
p54
asg5
S'None'
p55
sg7
S'/2015/7/8/im-testin'
p56
sg9
S'http://twitter.com/AlexKKearney/status/618933007903232001,'
p57
sg11
S'None'
p58
sg13
V<p>I'm testing out whether or not my tweeter works. </p>
p59
sg15
S'None'
p60
sg17
g18
(S'\x07\xdf\x07\x08'
p61
tp62
Rp63
sg22
S'im-testin'
p64
sa(dp65
g2
(lp66
S'None'
p67
asg5
S'None'
p68
sg7
S'/2015/7/3/note'
p69
sg9
S'None'
p70
sg11
S'None'
p71
sg13
V<p>note</p>
p72
sg15
S'None'
p73
sg17
g18
(S'\x07\xdf\x07\x03'
p74
tp75
Rp76
sg22
S'note'
p77
sa(dp78
g2
(lp79
S'None'
p80
asg5
S'None'
p81
sg7
S'/2015/7/3/note-asdfa'
p82
sg9
S'None'
p83
sg11
S'None'
p84
sg13
V<p>note asdfasfsadfd</p>
p85
sg15
S'geo:51.0860924,-115.37743239999999'
p86
sg17
g18
(S'\x07\xdf\x07\x03'
p87
tp88
Rp89
sg22
S'note-asdfa'
p90
sa(dp91
g2
(lp92
S'None'
p93
asg5
S'None'
p94
sg7
S'/2015/6/27/another-te'
p95
sS'photo'
p96
S'data/2015/6/27/another-te.jpg'
p97
sg9
S'None'
p98
sg11
S'None'
p99
sg13
V<p>Another test </p>
p100
sg15
S'None'
p101
sg17
g18
(S'\x07\xdf\x06\x1b'
p102
tp103
Rp104
sg22
S'another-te'
p105
sa(dp106
g2
(lp107
S'None'
p108
asg5
S'None'
p109
sg7
S'/2015/6/23/now-im-te'
p110
sg9
S'http://twitter.com/AlexKKearney/status/613324283125866497,'
p111
sg11
S'None'
p112
sg13
V<p>Now I'm testing out a really long tweet to make sure that it properly truncates my message and makes it appropriate for twitter</p>
p113
sg15
S'None'
p114
sg17
g18
(S'\x07\xdf\x06\x17'
p115
tp116
Rp117
sg22
S'now-im-te'
p118
sa(dp119
g2
(lp120
S'None'
p121
asg5
S'None'
p122
sg7
S'/2015/6/23/heres-an'
p123
sg9
S'http://twitter.com/AlexKKearney/status/613321254817415169,'
p124
sg11
S'None'
p125
sg13
V<p>Here's an idea!</p>
p126
sg15
S'None'
p127
sg17
g18
(S'\x07\xdf\x06\x17'
p128
tp129
Rp130
sg22
S'heres-an'
p131
sa(dp132
g2
(lp133
S'None'
p134
asg5
S'None'
p135
sg7
S'/2015/6/23/sdajfaoskpdofk'
p136
sg9
S'None'
p137
sg11
S'None'
p138
sg13
V<p>sdajfaoskpdofk</p>
p139
sg15
S'None'
p140
sg17
g18
(S'\x07\xdf\x06\x17'
p141
tp142
Rp143
sg22
S'sdajfaoskpdofk'
p144
sa(dp145
g2
(lp146
S'None'
p147
asg5
S'None'
p148
sg7
S'/2015/6/23/wow'
p149
sg96
S'data/2015/6/23/wow.jpg'
p150
sg9
S'http://twitter.com/AlexKKearney/status/613325326190538752,'
p151
sg11
S'None'
p152
sg13
V<p>Wow. An image too. Now I'm testing out a really long tweet to make sure that it properly truncates my message and makes it appropriate for twitter</p>
p153
sg15
S'None'
p154
sg17
g18
(S'\x07\xdf\x06\x17'
p155
tp156
Rp157
sg22
S'wow'
p158
sa(dp159
g2
(lp160
S'None'
p161
asg5
S'None'
p162
sg7
S'/2015/6/23/sdajfaoskpdofk-asdfsadfasdfd-asdfasdf'
p163
sg96
S'data/2015/6/23/sdajfaoskpdofk-asdfsadfasdfd-asdfasdf.jpg'
p164
sg9
S'None'
p165
sg11
S'None'
p166
sg13
V<p>sdajfaoskpdofk asdfsadfasdfd asdfasdf!</p>
p167
sg15
S'None'
p168
sg17
g18
(S'\x07\xdf\x06\x17'
p169
tp170
Rp171
sg22
S'sdajfaoskpdofk-asdfsadfasdfd-asdfasdf'
p172
sa(dp173
g2
(lp174
S'None'
p175
asg5
S'None'
p176
sg7
S'/2015/6/23/sdajfaoskpdofk-asdfsadfasdf'
p177
sg9
S'None'
p178
sg11
S'None'
p179
sg13
V<p>sdajfaoskpdofk asdfsadfasdf!</p>
p180
sg15
S'None'
p181
sg17
g18
(S'\x07\xdf\x06\x17'
p182
tp183
Rp184
sg22
S'sdajfaoskpdofk-asdfsadfasdf'
p185
sa(dp186
g2
(lp187
S''
p188
asg5
g188
sg7
S'/2015/6/23/'
p189
sg9
S'None'
p190
sg11
g188
sg13
V<p>sadfjaosdkljfosk</p>
p191
sg15
g188
sg17
g18
(S'\x07\xdf\x06\x17'
p192
tp193
Rp194
sg22
g188
sa(dp195
g2
(lp196
S'None'
p197
asg5
S'None'
p198
sg7
S'/2015/6/23/sdajfaoskpdofk-asdfsadfasdfd-asdfasdf-asdfasdf'
p199
sg96
S'data/2015/6/23/sdajfaoskpdofk-asdfsadfasdfd-asdfasdf-asdfasdf.jpg'
p200
sg9
S'None'
p201
sg11
S'None'
p202
sg13
V<p>sdajfaoskpdofk asdfsadfasdfd asdfasdf asdfasdf!</p>
p203
sg15
S'None'
p204
sg17
g18
(S'\x07\xdf\x06\x17'
p205
tp206
Rp207
sg22
S'sdajfaoskpdofk-asdfsadfasdfd-asdfasdf-asdfasdf'
p208
sa(dp209
g2
(lp210
S'None'
p211
asg5
S'None'
p212
sg7
S'/2015/6/23/coolness'
p213
sg96
S'data/2015/6/23/coolness.jpg'
p214
sg9
S'http://twitter.com/AlexKKearney/status/613325525289988096,'
p215
sg11
S'None'
p216
sg13
V<p>coolness</p>
p217
sg15
S'None'
p218
sg17
g18
(S'\x07\xdf\x06\x17'
p219
tp220
Rp221
sg22
S'coolness'
p222
sa(dp223
g2
(lp224
S'None'
p225
asg5
S'None'
p226
sg7
S'/2015/6/23/sdaifsda'
p227
sg96
S'data/2015/6/23/sdaifsda.jpg'
p228
sg9
S'None'
p229
sg11
S'None'
p230
sg13
V<p>sdaifsda</p>
p231
sg15
S'None'
p232
sg17
g18
(S'\x07\xdf\x06\x17'
p233
tp234
Rp235
sg22
S'sdaifsda'
p236
sa(dp237
g2
(lp238
S'None'
p239
asg5
S'None'
p240
sg7
S'/2015/6/23/im-just-m'
p241
sg9
S'http://twitter.com/AlexKKearney/status/613321630085947392,'
p242
sg11
S'None'
p243
sg13
V<p>I'm just making a note</p>
p244
sg15
S'None'
p245
sg17
g18
(S'\x07\xdf\x06\x17'
p246
tp247
Rp248
sg22
S'im-just-m'
p249
sa(dp250
g2
(lp251
S'None'
p252
asg5
S'None'
p253
sg7
S'/2015/6/23/just-a-not'
p254
sg9
S'http://twitter.com/AlexKKearney/status/613320836603355136,'
p255
sg11
S'None'
p256
sg13
V<p>just a note</p>
p257
sg15
S'None'
p258
sg17
g18
(S'\x07\xdf\x06\x17'
p259
tp260
Rp261
sg22
S'just-a-not'
p262
sa.